; Function Attrs: mustprogress uwtable
define dso_local void @_ZNK4i18n12phonenumbers26PhoneNumberOfflineGeocoder23GetDescriptionForNumberB5cxx11ERKNS0_11PhoneNumberERKN6icu_706LocaleE(ptr dead_on_unwind noalias writable sret(%"class.std::__cxx11::basic_string") align 8 %0, ptr noundef nonnull align 8 dereferenceable(104) %1, ptr noundef nonnull align 8 dereferenceable(72) %2, ptr noundef nonnull align 8 dereferenceable(217) %3) local_unnamed_addr #3 align 2 personality ptr @__gxx_personality_v0 {
  %5 = alloca %"class.std::__cxx11::basic_string", align 8
  %6 = alloca %"class.std::allocator.0", align 1
  %7 = getelementptr inbounds i8, ptr %1, i64 8
  %8 = load ptr, ptr %7, align 8
  %9 = tail call noundef i32 @_ZNK4i18n12phonenumbers15PhoneNumberUtil13GetNumberTypeERKNS0_11PhoneNumberE(ptr noundef nonnull align 8 dereferenceable(64) %8, ptr noundef nonnull align 8 dereferenceable(72) %2)
  %10 = icmp eq i32 %9, 11
  br i1 %10, label %11, label %17

11:                                               ; preds = %4
  call void @_ZNSaIcEC1Ev(ptr noundef nonnull align 1 dereferenceable(1) %6) #14
  %12 = invoke noundef ptr @_ZNSt7__cxx1112basic_stringIcSt11char_traitsIcESaIcEE13_M_local_dataEv(ptr noundef nonnull align 8 dereferenceable(32) %0)
          to label %.noexc unwind label %15

.noexc:                                           ; preds = %11
  invoke void @_ZNSt7__cxx1112basic_stringIcSt11char_traitsIcESaIcEE12_Alloc_hiderC1EPcRKS3_(ptr noundef nonnull align 8 dereferenceable(8) %0, ptr noundef %12, ptr noundef nonnull align 1 dereferenceable(1) %6)
          to label %.noexc10 unwind label %15

.noexc10:                                         ; preds = %.noexc
  invoke void @_ZNSt7__cxx1112basic_stringIcSt11char_traitsIcESaIcEE12_M_constructIPKcEEvT_S8_St20forward_iterator_tag(ptr noundef nonnull align 8 dereferenceable(32) %0, ptr noundef nonnull @.str.1, ptr noundef nonnull @.str.1)
          to label %_ZNSt7__cxx1112basic_stringIcSt11char_traitsIcESaIcEEC2IS3_EEPKcRKS3_.exit unwind label %13

13:                                               ; preds = %.noexc10
  %14 = landingpad { ptr, i32 }
          cleanup
  call void @_ZNSaIcED2Ev(ptr noundef nonnull align 1 dereferenceable(1) %0) #14
  br label %.body

_ZNSt7__cxx1112basic_stringIcSt11char_traitsIcESaIcEEC2IS3_EEPKcRKS3_.exit: ; preds = %.noexc10
  call void @_ZNSaIcED1Ev(ptr noundef nonnull align 1 dereferenceable(1) %6) #14
  br label %28

15:                                               ; preds = %.noexc, %11
  %16 = landingpad { ptr, i32 }
          cleanup
  br label %.body

common.resume:                                    ; preds = %25, %.body
  %common.resume.op = phi { ptr, i32 } [ %eh.lpad-body, %.body ], [ %26, %25 ]
  resume { ptr, i32 } %common.resume.op

.body:                                            ; preds = %13, %15
  %eh.lpad-body = phi { ptr, i32 } [ %16, %15 ], [ %14, %13 ]
  call void @_ZNSaIcED1Ev(ptr noundef nonnull align 1 dereferenceable(1) %6) #14
  br label %common.resume

17:                                               ; preds = %4
  %18 = load ptr, ptr %7, align 8
  %19 = getelementptr inbounds i8, ptr %2, i64 56
  %20 = load i32, ptr %19, align 8
  %21 = tail call noundef zeroext i1 @_ZNK4i18n12phonenumbers15PhoneNumberUtil20IsNumberGeographicalENS1_15PhoneNumberTypeEi(ptr noundef nonnull align 8 dereferenceable(64) %18, i32 noundef %9, i32 noundef %20)
  br i1 %21, label %27, label %22

22:                                               ; preds = %17
  call void @llvm.lifetime.start.p0(i64 32, ptr nonnull %5)
  call void @_ZNSt7__cxx1112basic_stringIcSt11char_traitsIcESaIcEEC1Ev(ptr noundef nonnull align 8 dereferenceable(32) %5) #14, !noalias !12
  %23 = load ptr, ptr %7, align 8, !noalias !12
  invoke void @_ZNK4i18n12phonenumbers15PhoneNumberUtil22GetRegionCodeForNumberERKNS0_11PhoneNumberEPNSt7__cxx1112basic_stringIcSt11char_traitsIcESaIcEEE(ptr noundef nonnull align 8 dereferenceable(64) %23, ptr noundef nonnull align 8 dereferenceable(72) %2, ptr noundef nonnull %5)
          to label %24 unwind label %25, !noalias !12

24:                                               ; preds = %22
  invoke void @_ZNK4i18n12phonenumbers26PhoneNumberOfflineGeocoder20GetRegionDisplayNameEPKNSt7__cxx1112basic_stringIcSt11char_traitsIcESaIcEEERKN6icu_706LocaleE(ptr dead_on_unwind writable sret(%"class.std::__cxx11::basic_string") align 8 %0, ptr nonnull align 8 poison, ptr noundef nonnull %5, ptr noundef nonnull align 8 dereferenceable(217) %3)
          to label %_ZNK4i18n12phonenumbers26PhoneNumberOfflineGeocoder23GetCountryNameForNumberB5cxx11ERKNS0_11PhoneNumberERKN6icu_706LocaleE.exit unwind label %25

25:                                               ; preds = %24, %22
  %26 = landingpad { ptr, i32 }
          cleanup
  call void @_ZNSt7__cxx1112basic_stringIcSt11char_traitsIcESaIcEED1Ev(ptr noundef nonnull align 8 dereferenceable(32) %5) #14
  br label %common.resume

_ZNK4i18n12phonenumbers26PhoneNumberOfflineGeocoder23GetCountryNameForNumberB5cxx11ERKNS0_11PhoneNumberERKN6icu_706LocaleE.exit: ; preds = %24
  call void @_ZNSt7__cxx1112basic_stringIcSt11char_traitsIcESaIcEED1Ev(ptr noundef nonnull align 8 dereferenceable(32) %5) #14
  call void @llvm.lifetime.end.p0(i64 32, ptr nonnull %5)
  br label %28

27:                                               ; preds = %17
  tail call void @_ZNK4i18n12phonenumbers26PhoneNumberOfflineGeocoder28GetDescriptionForValidNumberB5cxx11ERKNS0_11PhoneNumberERKN6icu_706LocaleE(ptr dead_on_unwind writable sret(%"class.std::__cxx11::basic_string") align 8 %0, ptr noundef nonnull align 8 dereferenceable(104) %1, ptr noundef nonnull align 8 dereferenceable(72) %2, ptr noundef nonnull align 8 dereferenceable(217) %3)
  br label %28

28:                                               ; preds = %27, %_ZNK4i18n12phonenumbers26PhoneNumberOfflineGeocoder23GetCountryNameForNumberB5cxx11ERKNS0_11PhoneNumberERKN6icu_706LocaleE.exit, %_ZNSt7__cxx1112basic_stringIcSt11char_traitsIcESaIcEEC2IS3_EEPKcRKS3_.exit
  ret void
}